; ModuleID = '20/1284.c'
source_filename = "20/1284.c"
target datalayout = "e-m:e-p270:32:32-p271:32:32-p272:64:64-i64:64-f80:128-n8:16:32:64-S128"
target triple = "x86_64-pc-linux-gnu"

@.str = private unnamed_addr constant [5 x i8] c"%s%s\00", align 1
@.str.1 = private unnamed_addr constant [4 x i8] c"%s\0A\00", align 1

; Function Attrs: noinline nounwind uwtable
define dso_local i32 @main(i32 %0, i8** %1) #0 {
  %3 = alloca i32, align 4
  %4 = alloca i32, align 4
  %5 = alloca i8**, align 8
  %6 = alloca [20 x i8], align 16
  %7 = alloca [4 x i8], align 1
  %8 = alloca [20 x i8], align 16
  %9 = alloca i32, align 4
  %10 = alloca i8, align 1
  %11 = alloca i32, align 4
  %12 = alloca i32, align 4
  %13 = alloca i32, align 4
  store i32 0, i32* %3, align 4
  store i32 %0, i32* %4, align 4
  store i8** %1, i8*** %5, align 8
  br label %14

14:                                               ; preds = %68, %2
  %15 = getelementptr inbounds [20 x i8], [20 x i8]* %6, i64 0, i64 0
  %16 = getelementptr inbounds [4 x i8], [4 x i8]* %7, i64 0, i64 0
  %17 = call i32 (i8*, ...) @__isoc99_scanf(i8* getelementptr inbounds ([5 x i8], [5 x i8]* @.str, i64 0, i64 0), i8* %15, i8* %16)
  %18 = icmp ne i32 %17, -1
  br i1 %18, label %19, label %84

19:                                               ; preds = %14
  %20 = getelementptr inbounds [20 x i8], [20 x i8]* %6, i64 0, i64 0
  %21 = call i64 @strlen(i8* %20) #4
  %22 = trunc i64 %21 to i32
  store i32 %22, i32* %9, align 4
  %23 = getelementptr inbounds [20 x i8], [20 x i8]* %6, i64 0, i64 0
  %24 = load i8, i8* %23, align 16
  store i8 %24, i8* %10, align 1
  store i32 0, i32* %12, align 4
  br label %25

25:                                               ; preds = %45, %19
  %26 = load i32, i32* %12, align 4
  %27 = load i32, i32* %9, align 4
  %28 = icmp slt i32 %26, %27
  br i1 %28, label %29, label %48

29:                                               ; preds = %25
  %30 = load i32, i32* %12, align 4
  %31 = sext i32 %30 to i64
  %32 = getelementptr inbounds [20 x i8], [20 x i8]* %6, i64 0, i64 %31
  %33 = load i8, i8* %32, align 1
  %34 = sext i8 %33 to i32
  %35 = load i8, i8* %10, align 1
  %36 = sext i8 %35 to i32
  %37 = icmp sgt i32 %34, %36
  br i1 %37, label %38, label %44

38:                                               ; preds = %29
  %39 = load i32, i32* %12, align 4
  %40 = sext i32 %39 to i64
  %41 = getelementptr inbounds [20 x i8], [20 x i8]* %6, i64 0, i64 %40
  %42 = load i8, i8* %41, align 1
  store i8 %42, i8* %10, align 1
  %43 = load i32, i32* %12, align 4
  store i32 %43, i32* %11, align 4
  br label %44

44:                                               ; preds = %38, %29
  br label %45

45:                                               ; preds = %44
  %46 = load i32, i32* %12, align 4
  %47 = add nsw i32 %46, 1
  store i32 %47, i32* %12, align 4
  br label %25

48:                                               ; preds = %25
  store i32 0, i32* %13, align 4
  %49 = load i32, i32* %11, align 4
  %50 = add nsw i32 %49, 1
  store i32 %50, i32* %12, align 4
  br label %51

51:                                               ; preds = %65, %48
  %52 = load i32, i32* %12, align 4
  %53 = load i32, i32* %9, align 4
  %54 = icmp slt i32 %52, %53
  br i1 %54, label %55, label %68

55:                                               ; preds = %51
  %56 = load i32, i32* %12, align 4
  %57 = sext i32 %56 to i64
  %58 = getelementptr inbounds [20 x i8], [20 x i8]* %6, i64 0, i64 %57
  %59 = load i8, i8* %58, align 1
  %60 = load i32, i32* %13, align 4
  %61 = sext i32 %60 to i64
  %62 = getelementptr inbounds [20 x i8], [20 x i8]* %8, i64 0, i64 %61
  store i8 %59, i8* %62, align 1
  %63 = load i32, i32* %13, align 4
  %64 = add nsw i32 %63, 1
  store i32 %64, i32* %13, align 4
  br label %65

65:                                               ; preds = %55
  %66 = load i32, i32* %12, align 4
  %67 = add nsw i32 %66, 1
  store i32 %67, i32* %12, align 4
  br label %51

68:                                               ; preds = %51
  %69 = load i32, i32* %13, align 4
  %70 = sext i32 %69 to i64
  %71 = getelementptr inbounds [20 x i8], [20 x i8]* %8, i64 0, i64 %70
  store i8 0, i8* %71, align 1
  %72 = load i32, i32* %11, align 4
  %73 = add nsw i32 %72, 1
  %74 = sext i32 %73 to i64
  %75 = getelementptr inbounds [20 x i8], [20 x i8]* %6, i64 0, i64 %74
  store i8 0, i8* %75, align 1
  %76 = getelementptr inbounds [20 x i8], [20 x i8]* %6, i64 0, i64 0
  %77 = getelementptr inbounds [4 x i8], [4 x i8]* %7, i64 0, i64 0
  %78 = call i8* @strcat(i8* %76, i8* %77) #5
  %79 = getelementptr inbounds [20 x i8], [20 x i8]* %6, i64 0, i64 0
  %80 = getelementptr inbounds [20 x i8], [20 x i8]* %8, i64 0, i64 0
  %81 = call i8* @strcat(i8* %79, i8* %80) #5
  %82 = getelementptr inbounds [20 x i8], [20 x i8]* %6, i64 0, i64 0
  %83 = call i32 (i8*, ...) @printf(i8* getelementptr inbounds ([4 x i8], [4 x i8]* @.str.1, i64 0, i64 0), i8* %82)
  br label %14

84:                                               ; preds = %14
  ret i32 0
}

declare dso_local i32 @__isoc99_scanf(i8*, ...) #1

; Function Attrs: nounwind readonly
declare dso_local i64 @strlen(i8*) #2

; Function Attrs: nounwind
declare dso_local i8* @strcat(i8*, i8*) #3

declare dso_local i32 @printf(i8*, ...) #1


!llvm.module.flags = !{!0}
!llvm.ident = !{!1}

!0 = !{i32 1, !"wchar_size", i32 4}
!1 = !{!"clang version 10.0.0-4ubuntu1 "}
